target datalayout = "e-m:e-p270:32:32-p271:32:32-p272:64:64-i64:64-i128:128-f80:128-n8:16:32:64-S128"
target triple = "x86_64-pc-linux-gnu"

%struct.ExpandedObjectMethods = type { ptr, ptr }
%struct.TupleDescData = type { i32, i32, i32, i32, ptr, [0 x %struct.CompactAttribute] }
%struct.CompactAttribute = type { i32, i16, i8, i8, i8, i8, i8, i8, i8 }
%struct.ExpandedRecordHeader = type { %struct.ExpandedObjectHeader, i32, i32, i32, i32, i32, ptr, i64, ptr, ptr, i32, i64, i64, i32, i8, ptr, ptr, ptr, ptr, ptr, ptr, %struct.MemoryContextCallback }
%struct.ExpandedObjectHeader = type { i32, ptr, ptr, [10 x i8], [10 x i8] }
%struct.MemoryContextCallback = type { ptr, ptr, ptr }

@.str.2 = private unnamed_addr constant [16 x i8] c"expanded record\00", align 1
@ER_methods = internal constant %struct.ExpandedObjectMethods { ptr @ER_get_flat_size, ptr @ER_flatten_into }, align 8
@CurrentMemoryContext = external global ptr, align 8

; Function Attrs: inlinehint nounwind uwtable
define internal ptr @MemoryContextSwitchTo(ptr noundef %0) #5 {
  %2 = alloca ptr, align 8
  %3 = alloca ptr, align 8
  store ptr %0, ptr %2, align 8
  call void @llvm.lifetime.start.p0(i64 8, ptr %3) #9
  %4 = load ptr, ptr @CurrentMemoryContext, align 8
  store ptr %4, ptr %3, align 8
  %5 = load ptr, ptr %2, align 8
  store ptr %5, ptr @CurrentMemoryContext, align 8
  %6 = load ptr, ptr %3, align 8
  call void @llvm.lifetime.end.p0(i64 8, ptr %3) #9
  ret ptr %6
}

; Function Attrs: inlinehint nounwind uwtable
define internal ptr @expanded_record_get_tupdesc(ptr noundef %0) #5 {
  %2 = alloca ptr, align 8
  %3 = alloca ptr, align 8
  store ptr %0, ptr %3, align 8
  %4 = load ptr, ptr %3, align 8
  %5 = getelementptr inbounds nuw %struct.ExpandedRecordHeader, ptr %4, i32 0, i32 6
  %6 = load ptr, ptr %5, align 8
  %7 = icmp ne ptr %6, null
  %8 = zext i1 %7 to i32
  %9 = icmp ne i32 %8, 0
  %10 = zext i1 %9 to i32
  %11 = sext i32 %10 to i64
  %12 = call i64 @llvm.expect.i64(i64 %11, i64 1)
  %13 = icmp ne i64 %12, 0
  br i1 %13, label %14, label %18

14:                                               ; preds = %1
  %15 = load ptr, ptr %3, align 8
  %16 = getelementptr inbounds nuw %struct.ExpandedRecordHeader, ptr %15, i32 0, i32 6
  %17 = load ptr, ptr %16, align 8
  store ptr %17, ptr %2, align 8
  br label %21

18:                                               ; preds = %1
  %19 = load ptr, ptr %3, align 8
  %20 = call ptr @expanded_record_fetch_tupdesc(ptr noundef %19)
  store ptr %20, ptr %2, align 8
  br label %21

21:                                               ; preds = %18, %14
  %22 = load ptr, ptr %2, align 8
  ret ptr %22
}

; Function Attrs: nounwind uwtable
define dso_local ptr @make_expanded_record_from_exprecord(ptr noundef %0, ptr noundef %1) #0 {
  %3 = alloca ptr, align 8
  %4 = alloca ptr, align 8
  %5 = alloca ptr, align 8
  %6 = alloca ptr, align 8
  %7 = alloca ptr, align 8
  %8 = alloca ptr, align 8
  %9 = alloca ptr, align 8
  %10 = alloca i32, align 4
  store ptr %0, ptr %3, align 8
  store ptr %1, ptr %4, align 8
  call void @llvm.lifetime.start.p0(i64 8, ptr %5) #9
  call void @llvm.lifetime.start.p0(i64 8, ptr %6) #9
  %11 = load ptr, ptr %3, align 8
  %12 = call ptr @expanded_record_get_tupdesc(ptr noundef %11)
  store ptr %12, ptr %6, align 8
  call void @llvm.lifetime.start.p0(i64 8, ptr %7) #9
  call void @llvm.lifetime.start.p0(i64 8, ptr %8) #9
  call void @llvm.lifetime.start.p0(i64 8, ptr %9) #9
  br label %13

13:                                               ; preds = %2
  br label %14

14:                                               ; preds = %13
  br label %15

15:                                               ; preds = %14
  store i32 1, ptr %10, align 4
  %16 = load ptr, ptr %4, align 8
  %17 = call ptr @AllocSetContextCreateInternal(ptr noundef %16, ptr noundef @.str.2, i64 noundef 0, i64 noundef 8192, i64 noundef 8388608)
  store ptr %17, ptr %7, align 8
  %18 = load ptr, ptr %7, align 8
  %19 = load ptr, ptr %6, align 8
  %20 = getelementptr inbounds nuw %struct.TupleDescData, ptr %19, i32 0, i32 0
  %21 = load i32, ptr %20, align 8
  %22 = sext i32 %21 to i64
  %23 = mul i64 %22, 9
  %24 = add i64 208, %23
  %25 = call ptr @MemoryContextAlloc(ptr noundef %18, i64 noundef %24)
  store ptr %25, ptr %5, align 8
  %26 = load ptr, ptr %5, align 8
  call void @llvm.memset.p0.i64(ptr align 8 %26, i8 0, i64 208, i1 false)
  %27 = load ptr, ptr %5, align 8
  %28 = getelementptr inbounds nuw %struct.ExpandedRecordHeader, ptr %27, i32 0, i32 0
  %29 = load ptr, ptr %7, align 8
  call void @EOH_init_header(ptr noundef %28, ptr noundef @ER_methods, ptr noundef %29)
  %30 = load ptr, ptr %5, align 8
  %31 = getelementptr inbounds nuw %struct.ExpandedRecordHeader, ptr %30, i32 0, i32 1
  store i32 1384727874, ptr %31, align 8
  %32 = load ptr, ptr %5, align 8
  %33 = getelementptr inbounds nuw i8, ptr %32, i64 208
  store ptr %33, ptr %9, align 8
  %34 = load ptr, ptr %9, align 8
  %35 = load ptr, ptr %5, align 8
  %36 = getelementptr inbounds nuw %struct.ExpandedRecordHeader, ptr %35, i32 0, i32 8
  store ptr %34, ptr %36, align 8
  %37 = load ptr, ptr %9, align 8
  %38 = load ptr, ptr %6, align 8
  %39 = getelementptr inbounds nuw %struct.TupleDescData, ptr %38, i32 0, i32 0
  %40 = load i32, ptr %39, align 8
  %41 = sext i32 %40 to i64
  %42 = mul i64 %41, 8
  %43 = getelementptr inbounds nuw i8, ptr %37, i64 %42
  %44 = load ptr, ptr %5, align 8
  %45 = getelementptr inbounds nuw %struct.ExpandedRecordHeader, ptr %44, i32 0, i32 9
  store ptr %43, ptr %45, align 8
  %46 = load ptr, ptr %6, align 8
  %47 = getelementptr inbounds nuw %struct.TupleDescData, ptr %46, i32 0, i32 0
  %48 = load i32, ptr %47, align 8
  %49 = load ptr, ptr %5, align 8
  %50 = getelementptr inbounds nuw %struct.ExpandedRecordHeader, ptr %49, i32 0, i32 10
  store i32 %48, ptr %50, align 8
  %51 = load ptr, ptr %3, align 8
  %52 = getelementptr inbounds nuw %struct.ExpandedRecordHeader, ptr %51, i32 0, i32 3
  %53 = load i32, ptr %52, align 8
  %54 = load ptr, ptr %5, align 8
  %55 = getelementptr inbounds nuw %struct.ExpandedRecordHeader, ptr %54, i32 0, i32 3
  store i32 %53, ptr %55, align 8
  %56 = load ptr, ptr %3, align 8
  %57 = getelementptr inbounds nuw %struct.ExpandedRecordHeader, ptr %56, i32 0, i32 4
  %58 = load i32, ptr %57, align 4
  %59 = load ptr, ptr %5, align 8
  %60 = getelementptr inbounds nuw %struct.ExpandedRecordHeader, ptr %59, i32 0, i32 4
  store i32 %58, ptr %60, align 4
  %61 = load ptr, ptr %3, align 8
  %62 = getelementptr inbounds nuw %struct.ExpandedRecordHeader, ptr %61, i32 0, i32 5
  %63 = load i32, ptr %62, align 8
  %64 = load ptr, ptr %5, align 8
  %65 = getelementptr inbounds nuw %struct.ExpandedRecordHeader, ptr %64, i32 0, i32 5
  store i32 %63, ptr %65, align 8
  %66 = load ptr, ptr %3, align 8
  %67 = getelementptr inbounds nuw %struct.ExpandedRecordHeader, ptr %66, i32 0, i32 7
  %68 = load i64, ptr %67, align 8
  %69 = load ptr, ptr %5, align 8
  %70 = getelementptr inbounds nuw %struct.ExpandedRecordHeader, ptr %69, i32 0, i32 7
  store i64 %68, ptr %70, align 8
  %71 = load ptr, ptr %3, align 8
  %72 = getelementptr inbounds nuw %struct.ExpandedRecordHeader, ptr %71, i32 0, i32 2
  %73 = load i32, ptr %72, align 4
  %74 = and i32 %73, 64
  %75 = load ptr, ptr %5, align 8
  %76 = getelementptr inbounds nuw %struct.ExpandedRecordHeader, ptr %75, i32 0, i32 2
  store i32 %74, ptr %76, align 4
  %77 = load ptr, ptr %6, align 8
  %78 = getelementptr inbounds nuw %struct.TupleDescData, ptr %77, i32 0, i32 3
  %79 = load i32, ptr %78, align 4
  %80 = icmp sge i32 %79, 0
  br i1 %80, label %81, label %102

81:                                               ; preds = %15
  %82 = load ptr, ptr %5, align 8
  %83 = getelementptr inbounds nuw %struct.ExpandedRecordHeader, ptr %82, i32 0, i32 21
  %84 = getelementptr inbounds nuw %struct.MemoryContextCallback, ptr %83, i32 0, i32 0
  store ptr @ER_mc_callback, ptr %84, align 8
  %85 = load ptr, ptr %5, align 8
  %86 = load ptr, ptr %5, align 8
  %87 = getelementptr inbounds nuw %struct.ExpandedRecordHeader, ptr %86, i32 0, i32 21
  %88 = getelementptr inbounds nuw %struct.MemoryContextCallback, ptr %87, i32 0, i32 1
  store ptr %85, ptr %88, align 8
  %89 = load ptr, ptr %5, align 8
  %90 = getelementptr inbounds nuw %struct.ExpandedRecordHeader, ptr %89, i32 0, i32 0
  %91 = getelementptr inbounds nuw %struct.ExpandedObjectHeader, ptr %90, i32 0, i32 2
  %92 = load ptr, ptr %91, align 8
  %93 = load ptr, ptr %5, align 8
  %94 = getelementptr inbounds nuw %struct.ExpandedRecordHeader, ptr %93, i32 0, i32 21
  call void @MemoryContextRegisterResetCallback(ptr noundef %92, ptr noundef %94)
  %95 = load ptr, ptr %6, align 8
  %96 = load ptr, ptr %5, align 8
  %97 = getelementptr inbounds nuw %struct.ExpandedRecordHeader, ptr %96, i32 0, i32 6
  store ptr %95, ptr %97, align 8
  %98 = load ptr, ptr %6, align 8
  %99 = getelementptr inbounds nuw %struct.TupleDescData, ptr %98, i32 0, i32 3
  %100 = load i32, ptr %99, align 4
  %101 = add i32 %100, 1
  store i32 %101, ptr %99, align 4
  br label %126

102:                                              ; preds = %15
  %103 = load ptr, ptr %3, align 8
  %104 = getelementptr inbounds nuw %struct.ExpandedRecordHeader, ptr %103, i32 0, i32 2
  %105 = load i32, ptr %104, align 4
  %106 = and i32 %105, 32
  %107 = icmp ne i32 %106, 0
  br i1 %107, label %108, label %121

108:                                              ; preds = %102
  %109 = load ptr, ptr %7, align 8
  %110 = call ptr @MemoryContextSwitchTo(ptr noundef %109)
  store ptr %110, ptr %8, align 8
  %111 = load ptr, ptr %6, align 8
  %112 = call ptr @CreateTupleDescCopy(ptr noundef %111)
  %113 = load ptr, ptr %5, align 8
  %114 = getelementptr inbounds nuw %struct.ExpandedRecordHeader, ptr %113, i32 0, i32 6
  store ptr %112, ptr %114, align 8
  %115 = load ptr, ptr %5, align 8
  %116 = getelementptr inbounds nuw %struct.ExpandedRecordHeader, ptr %115, i32 0, i32 2
  %117 = load i32, ptr %116, align 4
  %118 = or i32 %117, 32
  store i32 %118, ptr %116, align 4
  %119 = load ptr, ptr %8, align 8
  %120 = call ptr @MemoryContextSwitchTo(ptr noundef %119)
  br label %125

121:                                              ; preds = %102
  %122 = load ptr, ptr %6, align 8
  %123 = load ptr, ptr %5, align 8
  %124 = getelementptr inbounds nuw %struct.ExpandedRecordHeader, ptr %123, i32 0, i32 6
  store ptr %122, ptr %124, align 8
  br label %125

125:                                              ; preds = %121, %108
  br label %126

126:                                              ; preds = %125, %81
  %127 = load ptr, ptr %5, align 8
  call void @llvm.lifetime.end.p0(i64 8, ptr %9) #9
  call void @llvm.lifetime.end.p0(i64 8, ptr %8) #9
  call void @llvm.lifetime.end.p0(i64 8, ptr %7) #9
  call void @llvm.lifetime.end.p0(i64 8, ptr %6) #9
  call void @llvm.lifetime.end.p0(i64 8, ptr %5) #9
  ret ptr %127
}