; Function Attrs: nounwind uwtable
define dso_local noundef ptr @make_expanded_record_from_exprecord(ptr noundef %0, ptr noundef %1) local_unnamed_addr #0 {
  %3 = getelementptr inbounds nuw i8, ptr %0, i64 72
  %4 = load ptr, ptr %3, align 8
  %.not.i = icmp eq ptr %4, null
  br i1 %.not.i, label %5, label %expanded_record_get_tupdesc.exit, !prof !4

5:                                                ; preds = %2
  %6 = tail call ptr @expanded_record_fetch_tupdesc(ptr noundef nonnull %0)
  br label %expanded_record_get_tupdesc.exit

expanded_record_get_tupdesc.exit:                 ; preds = %2, %5
  %.0.i = phi ptr [ %6, %5 ], [ %4, %2 ]
  %7 = tail call ptr @AllocSetContextCreateInternal(ptr noundef %1, ptr noundef nonnull @.str.2, i64 noundef 0, i64 noundef 8192, i64 noundef 8388608) #8
  %8 = load i32, ptr %.0.i, align 8
  %9 = sext i32 %8 to i64
  %10 = mul nsw i64 %9, 9
  %11 = add nsw i64 %10, 208
  %12 = tail call ptr @MemoryContextAlloc(ptr noundef %7, i64 noundef %11) #8
  tail call void @llvm.memset.p0.i64(ptr noundef nonnull align 8 dereferenceable(208) %12, i8 0, i64 208, i1 false)
  tail call void @EOH_init_header(ptr noundef nonnull %12, ptr noundef nonnull @ER_methods, ptr noundef %7) #8
  %13 = getelementptr inbounds nuw i8, ptr %12, i64 48
  store i32 1384727874, ptr %13, align 8
  %14 = getelementptr inbounds nuw i8, ptr %12, i64 208
  %15 = getelementptr inbounds nuw i8, ptr %12, i64 88
  store ptr %14, ptr %15, align 8
  %16 = load i32, ptr %.0.i, align 8
  %17 = sext i32 %16 to i64
  %18 = shl nsw i64 %17, 3
  %19 = getelementptr inbounds nuw i8, ptr %14, i64 %18
  %20 = getelementptr inbounds nuw i8, ptr %12, i64 96
  store ptr %19, ptr %20, align 8
  %21 = load i32, ptr %.0.i, align 8
  %22 = getelementptr inbounds nuw i8, ptr %12, i64 104
  store i32 %21, ptr %22, align 8
  %23 = getelementptr inbounds nuw i8, ptr %0, i64 56
  %24 = load i32, ptr %23, align 8
  %25 = getelementptr inbounds nuw i8, ptr %12, i64 56
  store i32 %24, ptr %25, align 8
  %26 = getelementptr inbounds nuw i8, ptr %0, i64 60
  %27 = load i32, ptr %26, align 4
  %28 = getelementptr inbounds nuw i8, ptr %12, i64 60
  store i32 %27, ptr %28, align 4
  %29 = getelementptr inbounds nuw i8, ptr %0, i64 64
  %30 = load i32, ptr %29, align 8
  %31 = getelementptr inbounds nuw i8, ptr %12, i64 64
  store i32 %30, ptr %31, align 8
  %32 = getelementptr inbounds nuw i8, ptr %0, i64 80
  %33 = load i64, ptr %32, align 8
  %34 = getelementptr inbounds nuw i8, ptr %12, i64 80
  store i64 %33, ptr %34, align 8
  %35 = getelementptr inbounds nuw i8, ptr %0, i64 52
  %36 = load i32, ptr %35, align 4
  %37 = and i32 %36, 64
  %38 = getelementptr inbounds nuw i8, ptr %12, i64 52
  store i32 %37, ptr %38, align 4
  %39 = getelementptr inbounds nuw i8, ptr %.0.i, i64 12
  %40 = load i32, ptr %39, align 4
  %41 = icmp sgt i32 %40, -1
  br i1 %41, label %42, label %50

42:                                               ; preds = %expanded_record_get_tupdesc.exit
  %43 = getelementptr inbounds nuw i8, ptr %12, i64 184
  store ptr @ER_mc_callback, ptr %43, align 8
  %44 = getelementptr inbounds nuw i8, ptr %12, i64 192
  store ptr %12, ptr %44, align 8
  %45 = getelementptr inbounds nuw i8, ptr %12, i64 16
  %46 = load ptr, ptr %45, align 8
  tail call void @MemoryContextRegisterResetCallback(ptr noundef %46, ptr noundef nonnull %43) #8
  %47 = getelementptr inbounds nuw i8, ptr %12, i64 72
  store ptr %.0.i, ptr %47, align 8
  %48 = load i32, ptr %39, align 4
  %49 = add i32 %48, 1
  store i32 %49, ptr %39, align 4
  br label %61

50:                                               ; preds = %expanded_record_get_tupdesc.exit
  %51 = load i32, ptr %35, align 4
  %52 = and i32 %51, 32
  %.not = icmp eq i32 %52, 0
  br i1 %.not, label %59, label %53

53:                                               ; preds = %50
  %54 = load ptr, ptr @CurrentMemoryContext, align 8
  store ptr %7, ptr @CurrentMemoryContext, align 8
  %55 = tail call ptr @CreateTupleDescCopy(ptr noundef nonnull %.0.i) #8
  %56 = getelementptr inbounds nuw i8, ptr %12, i64 72
  store ptr %55, ptr %56, align 8
  %57 = load i32, ptr %38, align 4
  %58 = or i32 %57, 32
  store i32 %58, ptr %38, align 4
  store ptr %54, ptr @CurrentMemoryContext, align 8
  br label %61

59:                                               ; preds = %50
  %60 = getelementptr inbounds nuw i8, ptr %12, i64 72
  store ptr %.0.i, ptr %60, align 8
  br label %61

61:                                               ; preds = %53, %59, %42
  ret ptr %12
}